; Function Attrs: nofree norecurse nosync nounwind memory(readwrite, inaccessiblemem: none) uwtable
define void @Res_SimDeriveInfoComplement(ptr noundef readonly captures(none) %0) local_unnamed_addr #7 {
  %2 = load ptr, ptr %0, align 8, !tbaa !36
  %3 = getelementptr i8, ptr %2, i64 48
  %.val = load ptr, ptr %3, align 8, !tbaa !53
  %4 = getelementptr i8, ptr %.val, i64 4
  %.val.val32 = load i32, ptr %4, align 4, !tbaa !22
  %5 = icmp sgt i32 %.val.val32, 0
  br i1 %5, label %.lr.ph35, label %.critedge

.lr.ph35:                                         ; preds = %1
  %6 = getelementptr i8, ptr %.val, i64 8
  %.val27.val = load ptr, ptr %6, align 8, !tbaa !25
  %7 = getelementptr inbounds nuw i8, ptr %0, i64 48
  %8 = load ptr, ptr %7, align 8, !tbaa !26
  %9 = getelementptr i8, ptr %8, i64 8
  %.val26 = load ptr, ptr %9, align 8, !tbaa !25
  %10 = getelementptr inbounds nuw i8, ptr %0, i64 72
  %11 = load ptr, ptr %10, align 8, !tbaa !29
  %12 = getelementptr i8, ptr %11, i64 8
  %.val25 = load ptr, ptr %12, align 8, !tbaa !25
  %13 = getelementptr inbounds nuw i8, ptr %0, i64 24
  %14 = getelementptr inbounds nuw i8, ptr %0, i64 20
  %15 = load i32, ptr %13, align 8, !tbaa !13
  %16 = icmp sgt i32 %15, 0
  br i1 %16, label %.lr.ph35.split, label %.critedge

.lr.ph35.split:                                   ; preds = %.lr.ph35, %._crit_edge
  %.val.val42 = phi i32 [ %.val.val, %._crit_edge ], [ %.val.val32, %.lr.ph35 ]
  %17 = phi i32 [ %49, %._crit_edge ], [ %15, %.lr.ph35 ]
  %18 = phi i32 [ %50, %._crit_edge ], [ %15, %.lr.ph35 ]
  %indvars.iv38 = phi i64 [ %indvars.iv.next39, %._crit_edge ], [ 0, %.lr.ph35 ]
  %19 = getelementptr inbounds nuw ptr, ptr %.val27.val, i64 %indvars.iv38
  %20 = load ptr, ptr %19, align 8, !tbaa !19
  %21 = getelementptr inbounds nuw i8, ptr %20, i64 16
  %22 = load i32, ptr %21, align 8, !tbaa !62
  %23 = sext i32 %22 to i64
  %24 = getelementptr inbounds ptr, ptr %.val26, i64 %23
  %25 = load ptr, ptr %24, align 8, !tbaa !19
  %26 = icmp sgt i32 %18, 0
  br i1 %26, label %.lr.ph31.preheader, label %._crit_edge

.lr.ph31.preheader:                               ; preds = %.lr.ph35.split
  %27 = getelementptr inbounds nuw ptr, ptr %.val25, i64 %indvars.iv38
  %28 = load ptr, ptr %27, align 8, !tbaa !19
  %.pre.pre = load i32, ptr %14, align 4, !tbaa !3
  br label %.lr.ph31

.lr.ph31:                                         ; preds = %.lr.ph31.preheader, %.loopexit
  %.pre = phi i32 [ %.pre44, %.loopexit ], [ %.pre.pre, %.lr.ph31.preheader ]
  %29 = phi i32 [ %44, %.loopexit ], [ %17, %.lr.ph31.preheader ]
  %.02230 = phi i32 [ %45, %.loopexit ], [ 0, %.lr.ph31.preheader ]
  %.02429 = phi ptr [ %47, %.loopexit ], [ %28, %.lr.ph31.preheader ]
  %30 = lshr i32 %.02230, 5
  %31 = zext nneg i32 %30 to i64
  %32 = getelementptr inbounds nuw i32, ptr %25, i64 %31
  %33 = load i32, ptr %32, align 4, !tbaa !59
  %34 = and i32 %.02230, 31
  %35 = shl nuw i32 1, %34
  %36 = and i32 %33, %35
  %.not = icmp ne i32 %36, 0
  %37 = icmp sgt i32 %.pre, 0
  %or.cond = select i1 %.not, i1 %37, i1 false
  br i1 %or.cond, label %.lr.ph, label %.loopexit

.lr.ph:                                           ; preds = %.lr.ph31, %.lr.ph
  %indvars.iv = phi i64 [ %indvars.iv.next, %.lr.ph ], [ 0, %.lr.ph31 ]
  %38 = getelementptr inbounds nuw i32, ptr %.02429, i64 %indvars.iv
  %39 = load i32, ptr %38, align 4, !tbaa !59
  %40 = xor i32 %39, -1
  store i32 %40, ptr %38, align 4, !tbaa !59
  %indvars.iv.next = add nuw nsw i64 %indvars.iv, 1
  %41 = load i32, ptr %14, align 4, !tbaa !3
  %42 = sext i32 %41 to i64
  %43 = icmp slt i64 %indvars.iv.next, %42
  br i1 %43, label %.lr.ph, label %.loopexit.loopexit, !llvm.loop !101

.loopexit.loopexit:                               ; preds = %.lr.ph
  %.pre41 = load i32, ptr %13, align 8, !tbaa !13
  br label %.loopexit

.loopexit:                                        ; preds = %.loopexit.loopexit, %.lr.ph31
  %.pre44 = phi i32 [ %41, %.loopexit.loopexit ], [ %.pre, %.lr.ph31 ]
  %44 = phi i32 [ %.pre41, %.loopexit.loopexit ], [ %29, %.lr.ph31 ]
  %45 = add nuw nsw i32 %.02230, 1
  %46 = sext i32 %.pre44 to i64
  %47 = getelementptr inbounds i32, ptr %.02429, i64 %46
  %48 = icmp slt i32 %45, %44
  br i1 %48, label %.lr.ph31, label %._crit_edge.loopexit, !llvm.loop !102

._crit_edge.loopexit:                             ; preds = %.loopexit
  %.val.val.pre = load i32, ptr %4, align 4, !tbaa !22
  br label %._crit_edge

._crit_edge:                                      ; preds = %._crit_edge.loopexit, %.lr.ph35.split
  %.val.val = phi i32 [ %.val.val.pre, %._crit_edge.loopexit ], [ %.val.val42, %.lr.ph35.split ]
  %49 = phi i32 [ %44, %._crit_edge.loopexit ], [ %17, %.lr.ph35.split ]
  %50 = phi i32 [ %44, %._crit_edge.loopexit ], [ %18, %.lr.ph35.split ]
  %indvars.iv.next39 = add nuw nsw i64 %indvars.iv38, 1
  %51 = sext i32 %.val.val to i64
  %52 = icmp slt i64 %indvars.iv.next39, %51
  br i1 %52, label %.lr.ph35.split, label %.critedge, !llvm.loop !103

.critedge:                                        ; preds = %._crit_edge, %.lr.ph35, %1
  ret void
}